; Function Attrs: mustprogress nofree norecurse nosync nounwind willreturn memory(argmem: write) uwtable
define void @_ZN3net5CubicC2EPKNS_9QuicClockE(ptr noundef nonnull writeonly align 8 captures(none) dereferenceable(96) initializes((0, 12), (16, 84), (88, 96)) %0, ptr noundef %1) unnamed_addr #0 align 2 {
  store ptr %1, ptr %0, align 8, !tbaa !3
  %3 = getelementptr inbounds nuw i8, ptr %0, i64 8
  store i32 2, ptr %3, align 8, !tbaa !12
  %4 = getelementptr inbounds nuw i8, ptr %0, i64 16
  %5 = getelementptr inbounds nuw i8, ptr %0, i64 88
  store i64 0, ptr %5, align 8, !tbaa !13
  tail call void @llvm.memset.p0.i64(ptr noundef nonnull align 8 dereferenceable(68) %4, i8 0, i64 68, i1 false)
  ret void
}